; Function Attrs: mustprogress uwtable
define hidden void @_ZN4cvc58internal6theory2bv7BBProof15getStoredBBAtomENS0_12NodeTemplateILb0EEE(ptr noalias sret(%"class.cvc5::internal::NodeTemplate.400") align 8 %agg.result, ptr nocapture noundef nonnull readonly align 8 dereferenceable(105) %this, ptr nocapture noundef readonly %node) local_unnamed_addr #3 align 2 personality ptr @__gxx_personality_v0 {
entry:
  %agg.tmp = alloca %"class.cvc5::internal::NodeTemplate", align 8
  %d_bb = getelementptr inbounds i8, ptr %this, i64 16
  %0 = load ptr, ptr %d_bb, align 8
  %1 = load ptr, ptr %node, align 8
  store ptr %1, ptr %agg.tmp, align 8
  call void @_ZN4cvc58internal6theory2bv14NodeBitblaster15getStoredBBAtomENS0_12NodeTemplateILb0EEE(ptr sret(%"class.cvc5::internal::NodeTemplate.400") align 8 %agg.result, ptr noundef nonnull align 8 dereferenceable(6112) %0, ptr noundef nonnull %agg.tmp)
  ret void
}